target datalayout = "e-m:e-p270:32:32-p271:32:32-p272:64:64-i64:64-i128:128-f80:128-n8:16:32:64-S128"
target triple = "x86_64-pc-linux-gnu"

%class.DCmdWithParser = type { %class.DCmd.base, %class.DCmdParser }
%class.DCmd.base = type <{ ptr, ptr, i8 }>
%class.DCmdParser = type { ptr, ptr }
%class.DCmdArgument = type { %class.GenDCmdArgument.base, i8, [4 x i8] }
%class.GenDCmdArgument.base = type <{ ptr, ptr, ptr, ptr, ptr, ptr, i8, i8, i8 }>
%class.DCmd = type <{ ptr, ptr, i8, [7 x i8] }>
%class.PrintVMFlagsDCmd = type { %class.DCmdWithParser, %class.DCmdArgument }

; Function Attrs: mustprogress nounwind uwtable
define linkonce_odr hidden noundef ptr @_ZNK4DCmd6outputEv(ptr noundef nonnull align 8 dereferenceable(17) %0) #1 comdat align 2 {
  %2 = alloca ptr, align 8
  store ptr %0, ptr %2, align 8
  %3 = load ptr, ptr %2, align 8
  %4 = getelementptr inbounds %class.DCmd, ptr %3, i32 0, i32 1
  %5 = load ptr, ptr %4, align 8
  ret ptr %5
}

; Function Attrs: mustprogress nounwind uwtable
define linkonce_odr hidden noundef zeroext i1 @_ZNK12DCmdArgumentIbE5valueEv(ptr noundef nonnull align 8 dereferenceable(52) %0) #1 comdat align 2 {
  %2 = alloca ptr, align 8
  store ptr %0, ptr %2, align 8
  %3 = load ptr, ptr %2, align 8
  %4 = getelementptr inbounds %class.DCmdArgument, ptr %3, i32 0, i32 1
  %5 = load i8, ptr %4, align 1
  %6 = trunc i8 %5 to i1
  ret i1 %6
}

; Function Attrs: mustprogress nounwind uwtable
define hidden void @_ZN16PrintVMFlagsDCmd7executeE10DCmdSourceP10JavaThread(ptr noundef nonnull align 8 dereferenceable(96) %0, i32 noundef %1, ptr noundef %2) unnamed_addr #1 align 2 {
  %4 = alloca ptr, align 8
  %5 = alloca i32, align 4
  %6 = alloca ptr, align 8
  store ptr %0, ptr %4, align 8
  store i32 %1, ptr %5, align 4
  store ptr %2, ptr %6, align 8
  %7 = load ptr, ptr %4, align 8
  %8 = getelementptr inbounds %class.PrintVMFlagsDCmd, ptr %7, i32 0, i32 1
  %9 = call noundef zeroext i1 @_ZNK12DCmdArgumentIbE5valueEv(ptr noundef nonnull align 8 dereferenceable(52) %8)
  br i1 %9, label %10, label %12

10:                                               ; preds = %3
  %11 = call noundef ptr @_ZNK4DCmd6outputEv(ptr noundef nonnull align 8 dereferenceable(17) %7)
  call void @_ZN7JVMFlag10printFlagsEP12outputStreambbb(ptr noundef %11, i1 noundef zeroext true, i1 noundef zeroext false, i1 noundef zeroext false)
  br label %14

12:                                               ; preds = %3
  %13 = call noundef ptr @_ZNK4DCmd6outputEv(ptr noundef nonnull align 8 dereferenceable(17) %7)
  call void @_ZN7JVMFlag13printSetFlagsEP12outputStream(ptr noundef %13)
  br label %14

14:                                               ; preds = %12, %10
  ret void
}