; Function Attrs: mustprogress nounwind uwtable
define hidden void @_ZN16PrintVMFlagsDCmd7executeE10DCmdSourceP10JavaThread(ptr nocapture noundef nonnull readonly align 8 dereferenceable(96) %0, i32 %1, ptr nocapture readnone %2) unnamed_addr #0 align 2 {
  %4 = getelementptr inbounds i8, ptr %0, i64 91
  %5 = load i8, ptr %4, align 1
  %6 = trunc i8 %5 to i1
  %7 = getelementptr inbounds i8, ptr %0, i64 8
  %8 = load ptr, ptr %7, align 8
  br i1 %6, label %9, label %10

9:                                                ; preds = %3
  tail call void @_ZN7JVMFlag10printFlagsEP12outputStreambbb(ptr noundef %8, i1 noundef zeroext true, i1 noundef zeroext false, i1 noundef zeroext false) #17
  br label %11

10:                                               ; preds = %3
  tail call void @_ZN7JVMFlag13printSetFlagsEP12outputStream(ptr noundef %8) #17
  br label %11

11:                                               ; preds = %10, %9
  ret void
}